target datalayout = "e-m:e-p270:32:32-p271:32:32-p272:64:64-i64:64-i128:128-f80:128-n8:16:32:64-S128"
target triple = "x86_64-unknown-linux-gnu"

%struct.Chardev = type { %struct.Object, %struct.QemuMutex, ptr, ptr, ptr, i32, i32, i8, ptr, ptr, [1 x i64] }
%struct.Object = type { ptr, ptr, ptr, i32, ptr }
%struct.QemuMutex = type { %union.pthread_mutex_t, i8 }
%union.pthread_mutex_t = type { %struct.__pthread_mutex_s }
%struct.__pthread_mutex_s = type { i32, i32, i32, i32, i32, i16, i16, %struct.__pthread_internal_list }
%struct.__pthread_internal_list = type { ptr, ptr }

@error_abort = external global ptr, align 8
@.str.7 = private unnamed_addr constant [1 x i8] zeroinitializer, align 1
@.str.8 = private unnamed_addr constant [23 x i8] c"!value || value->label\00", align 1
@.str.9 = private unnamed_addr constant [41 x i8] c"../qemu/hw/core/qdev-properties-system.c\00", align 1
@__PRETTY_FUNCTION__.qdev_prop_set_chr = private unnamed_addr constant [63 x i8] c"void qdev_prop_set_chr(DeviceState *, const char *, Chardev *)\00", align 1

; Function Attrs: nounwind sspstrong uwtable
define dso_local void @qdev_prop_set_chr(ptr noundef %dev, ptr noundef %name, ptr noundef %value) #0 {
entry:
  %dev.addr = alloca ptr, align 8
  %name.addr = alloca ptr, align 8
  %value.addr = alloca ptr, align 8
  store ptr %dev, ptr %dev.addr, align 8
  store ptr %name, ptr %name.addr, align 8
  store ptr %value, ptr %value.addr, align 8
  %0 = load ptr, ptr %value.addr, align 8
  %tobool = icmp ne ptr %0, null
  br i1 %tobool, label %lor.lhs.false, label %if.then

lor.lhs.false:                                    ; preds = %entry
  %1 = load ptr, ptr %value.addr, align 8
  %label = getelementptr inbounds %struct.Chardev, ptr %1, i32 0, i32 3
  %2 = load ptr, ptr %label, align 8
  %tobool1 = icmp ne ptr %2, null
  br i1 %tobool1, label %if.then, label %if.else

if.then:                                          ; preds = %lor.lhs.false, %entry
  br label %if.end

if.else:                                          ; preds = %lor.lhs.false
  call void @__assert_fail(ptr noundef @.str.8, ptr noundef @.str.9, i32 noundef 530, ptr noundef @__PRETTY_FUNCTION__.qdev_prop_set_chr) #9
  unreachable

if.end:                                           ; preds = %if.then
  %3 = load ptr, ptr %dev.addr, align 8
  %4 = load ptr, ptr %name.addr, align 8
  %5 = load ptr, ptr %value.addr, align 8
  %tobool2 = icmp ne ptr %5, null
  br i1 %tobool2, label %cond.true, label %cond.false

cond.true:                                        ; preds = %if.end
  %6 = load ptr, ptr %value.addr, align 8
  %label3 = getelementptr inbounds %struct.Chardev, ptr %6, i32 0, i32 3
  %7 = load ptr, ptr %label3, align 8
  br label %cond.end

cond.false:                                       ; preds = %if.end
  br label %cond.end

cond.end:                                         ; preds = %cond.false, %cond.true
  %cond = phi ptr [ %7, %cond.true ], [ @.str.7, %cond.false ]
  %call = call zeroext i1 @object_property_set_str(ptr noundef %3, ptr noundef %4, ptr noundef %cond, ptr noundef @error_abort)
  ret void
}