; Function Attrs: nounwind sspstrong uwtable
define dso_local void @qdev_prop_set_chr(ptr noundef %dev, ptr noundef %name, ptr noundef readonly %value) local_unnamed_addr #0 {
entry:
  %tobool.not = icmp eq ptr %value, null
  br i1 %tobool.not, label %cond.end, label %lor.lhs.false

lor.lhs.false:                                    ; preds = %entry
  %label = getelementptr inbounds nuw i8, ptr %value, i64 96
  %0 = load ptr, ptr %label, align 8
  %tobool1.not = icmp eq ptr %0, null
  br i1 %tobool1.not, label %if.else, label %cond.end

if.else:                                          ; preds = %lor.lhs.false
  tail call void @__assert_fail(ptr noundef nonnull @.str.8, ptr noundef nonnull @.str.9, i32 noundef 530, ptr noundef nonnull @__PRETTY_FUNCTION__.qdev_prop_set_chr) #12
  unreachable

cond.end:                                         ; preds = %lor.lhs.false, %entry
  %cond = phi ptr [ @.str.7, %entry ], [ %0, %lor.lhs.false ]
  %call = tail call zeroext i1 @object_property_set_str(ptr noundef %dev, ptr noundef %name, ptr noundef nonnull %cond, ptr noundef nonnull @error_abort) #10
  ret void
}